; Function Attrs: nounwind uwtable
define dso_local range(i32 -13, 1) i32 @reftable_buf_add(ptr noundef captures(none) %0, ptr noundef readonly captures(none) %1, i64 noundef %2) local_unnamed_addr #0 {
  %4 = getelementptr inbounds nuw i8, ptr %0, i64 8
  %5 = load i64, ptr %4, align 8, !tbaa !13
  %6 = add i64 %5, %2
  %7 = add i64 %6, 1
  %8 = load i64, ptr %0, align 8, !tbaa !12
  %9 = icmp ugt i64 %7, %8
  %10 = getelementptr inbounds nuw i8, ptr %0, i64 16
  %11 = load ptr, ptr %10, align 8, !tbaa !8
  br i1 %9, label %st_mult.exit.i, label %._crit_edge

st_mult.exit.i:                                   ; preds = %3
  %12 = shl i64 %8, 1
  %13 = or disjoint i64 %12, 1
  %spec.select.i = tail call i64 @llvm.umax.i64(i64 %13, i64 %7)
  %14 = load ptr, ptr @reftable_realloc_ptr, align 8, !tbaa !4
  %.not8.i.i = icmp eq ptr %14, null
  br i1 %.not8.i.i, label %17, label %15

15:                                               ; preds = %st_mult.exit.i
  %16 = tail call ptr %14(ptr noundef %11, i64 noundef %spec.select.i) #20
  br label %reftable_realloc.exit.i

17:                                               ; preds = %st_mult.exit.i
  %18 = tail call ptr @realloc(ptr noundef %11, i64 noundef %spec.select.i) #22
  br label %reftable_realloc.exit.i

reftable_realloc.exit.i:                          ; preds = %17, %15
  %.0.i.i = phi ptr [ %16, %15 ], [ %18, %17 ]
  %.not.i = icmp eq ptr %.0.i.i, null
  br i1 %.not.i, label %reftable_alloc_grow.exit, label %reftable_alloc_grow.exit.thread

reftable_alloc_grow.exit.thread:                  ; preds = %reftable_realloc.exit.i
  store i64 %spec.select.i, ptr %0, align 8, !tbaa !15
  store ptr %.0.i.i, ptr %10, align 8, !tbaa !8
  br label %reftable_alloc_grow.exit._crit_edge

reftable_alloc_grow.exit:                         ; preds = %reftable_realloc.exit.i
  %.pre = load i64, ptr %0, align 8, !tbaa !12
  store ptr %11, ptr %10, align 8, !tbaa !8
  %19 = icmp ugt i64 %7, %.pre
  br i1 %19, label %26, label %reftable_alloc_grow.exit._crit_edge

reftable_alloc_grow.exit._crit_edge:              ; preds = %reftable_alloc_grow.exit.thread, %reftable_alloc_grow.exit
  %.012.i25 = phi ptr [ %.0.i.i, %reftable_alloc_grow.exit.thread ], [ %11, %reftable_alloc_grow.exit ]
  %.pre23 = load i64, ptr %4, align 8, !tbaa !13
  br label %._crit_edge

._crit_edge:                                      ; preds = %3, %reftable_alloc_grow.exit._crit_edge
  %20 = phi i64 [ %.pre23, %reftable_alloc_grow.exit._crit_edge ], [ %5, %3 ]
  %21 = phi ptr [ %.012.i25, %reftable_alloc_grow.exit._crit_edge ], [ %11, %3 ]
  %22 = getelementptr inbounds nuw i8, ptr %0, i64 16
  %23 = getelementptr inbounds nuw i8, ptr %21, i64 %20
  tail call void @llvm.memcpy.p0.p0.i64(ptr align 1 %23, ptr align 1 %1, i64 %2, i1 false)
  %24 = load ptr, ptr %22, align 8, !tbaa !8
  %25 = getelementptr inbounds nuw i8, ptr %24, i64 %6
  store i8 0, ptr %25, align 1, !tbaa !14
  store i64 %6, ptr %4, align 8, !tbaa !13
  br label %26

26:                                               ; preds = %reftable_alloc_grow.exit, %._crit_edge
  %.0 = phi i32 [ 0, %._crit_edge ], [ -13, %reftable_alloc_grow.exit ]
  ret i32 %.0
}